; Function Attrs: mustprogress nounwind uwtable
define internal void @_ZN12_GLOBAL__N_17TruncOp6apply2ERN4llvm9SetTheoryEPKNS1_7DagInitERNS1_14SmallSetVectorIPNS1_6RecordELj16EEElSB_NS1_8ArrayRefINS1_5SMLocEEE(ptr nonnull readnone align 8 captures(none) %0, ptr nonnull readnone align 8 captures(none) %1, ptr noundef %2, ptr noundef nonnull align 8 dereferenceable(168) %3, i64 noundef %4, ptr noundef nonnull align 8 dereferenceable(168) %5, ptr noundef readonly byval(%"class.llvm::ArrayRef") align 8 captures(none) %6) unnamed_addr #1 align 2 {
  %8 = alloca %"class.llvm::Twine", align 8
  %9 = alloca %"class.std::__cxx11::basic_string", align 8
  %10 = alloca %"class.std::__cxx11::basic_string", align 8
  %11 = icmp slt i64 %4, 0
  br i1 %11, label %12, label %15

12:                                               ; preds = %7
  %.sroa.0.0.copyload = load ptr, ptr %6, align 8
  %.sroa.2.0..sroa_idx = getelementptr inbounds nuw i8, ptr %6, i64 8
  %.sroa.2.0.copyload = load i64, ptr %.sroa.2.0..sroa_idx, align 8
  call void @_ZNK4llvm7DagInit11getAsStringB5cxx11Ev(ptr dead_on_unwind nonnull writable sret(%"class.std::__cxx11::basic_string") align 8 %10, ptr noundef nonnull align 8 dereferenceable(56) %2) #18
  call void @_ZStplIcSt11char_traitsIcESaIcEENSt7__cxx1112basic_stringIT_T0_T1_EEPKS5_OS8_(ptr dead_on_unwind nonnull writable sret(%"class.std::__cxx11::basic_string") align 8 %9, ptr noundef nonnull @.str.18, ptr noundef nonnull align 8 dereferenceable(32) %10)
  %13 = getelementptr inbounds nuw i8, ptr %8, i64 32
  store i8 4, ptr %13, align 8
  %14 = getelementptr inbounds nuw i8, ptr %8, i64 33
  store i8 1, ptr %14, align 1
  store ptr %9, ptr %8, align 8
  call void @_ZN4llvm15PrintFatalErrorENS_8ArrayRefINS_5SMLocEEERKNS_5TwineE(ptr %.sroa.0.0.copyload, i64 %.sroa.2.0.copyload, ptr noundef nonnull align 8 dereferenceable(34) %8) #19
  unreachable

15:                                               ; preds = %7
  %16 = and i64 %4, 4294967295
  %17 = getelementptr inbounds nuw i8, ptr %3, i64 24
  %18 = tail call noundef i64 @_ZNK4llvm15SmallVectorBaseIjE4sizeEv(ptr noundef nonnull align 8 dereferenceable(16) %17) #18
  %19 = icmp ugt i64 %16, %18
  br i1 %19, label %20, label %22

20:                                               ; preds = %15
  %21 = tail call noundef i64 @_ZNK4llvm15SmallVectorBaseIjE4sizeEv(ptr noundef nonnull align 8 dereferenceable(16) %17) #18
  br label %22

22:                                               ; preds = %20, %15
  %.0 = phi i64 [ %21, %20 ], [ %4, %15 ]
  %23 = load ptr, ptr %17, align 8
  %24 = getelementptr inbounds ptr, ptr %23, i64 %.0
  %.not5.i = icmp eq i64 %.0, 0
  br i1 %.not5.i, label %_ZN4llvm9SetVectorIPNS_6RecordENS_11SmallVectorIS2_Lj16EEENS_8DenseSetIS2_NS_12DenseMapInfoIS2_vEEEELj16EE6insertIPKS2_EEvT_SD_.exit, label %.lr.ph.i

.lr.ph.i:                                         ; preds = %22, %.lr.ph.i
  %.06.i = phi ptr [ %26, %.lr.ph.i ], [ %23, %22 ]
  %25 = tail call noundef zeroext i1 @_ZN4llvm9SetVectorIPNS_6RecordENS_11SmallVectorIS2_Lj16EEENS_8DenseSetIS2_NS_12DenseMapInfoIS2_vEEEELj16EE6insertERKS2_(ptr noundef nonnull align 8 dereferenceable(168) %5, ptr noundef nonnull align 8 dereferenceable(8) %.06.i)
  %26 = getelementptr inbounds nuw i8, ptr %.06.i, i64 8
  %.not.i = icmp eq ptr %26, %24
  br i1 %.not.i, label %_ZN4llvm9SetVectorIPNS_6RecordENS_11SmallVectorIS2_Lj16EEENS_8DenseSetIS2_NS_12DenseMapInfoIS2_vEEEELj16EE6insertIPKS2_EEvT_SD_.exit, label %.lr.ph.i, !llvm.loop !57

_ZN4llvm9SetVectorIPNS_6RecordENS_11SmallVectorIS2_Lj16EEENS_8DenseSetIS2_NS_12DenseMapInfoIS2_vEEEELj16EE6insertIPKS2_EEvT_SD_.exit: ; preds = %.lr.ph.i, %22
  ret void
}